(dp0
I0
(dp1
S'salary'
p2
F365788.0
sS'total_payments'
p3
F1061827.0
sS'bonus'
p4
F600000.0
sS'to_poi/from_msg'
p5
F0.034482758620689655
sS'from_poi/to_msg'
p6
F0.04708798017348203
sS'expenses'
p7
F94299.0
sS'other'
p8
F1740.0
sS'poi'
p9
I00
sS'eso/tsv'
p10
F0.0
sS'shared_receipt_with_poi'
p11
F702.0
sS'restricted_stock'
p12
F585062.0
ssI1
(dp13
g2
F267102.0
sg3
F5634343.0
sg4
F1200000.0
sg5
F0.0
sg6
F0.0
sg7
F11200.0
sg8
F2660303.0
sg9
I00
sg10
F0.6288601858299968
sg11
F0.0
sg12
F3942714.0
ssI2
(dp14
g2
F170941.0
sg3
F211725.0
sg4
F350000.0
sg5
F0.0
sg6
F0.0
sg7
F78552.0
sg8
F12961.0
sg9
I00
sg10
F0.7322260877246963
sg11
F0.0
sg12
F1788391.0
ssI3
(dp15
g2
F0.0
sg3
F0.0
sg4
F0.0
sg5
F0.0
sg6
F0.013089005235602094
sg7
F0.0
sg8
F0.0
sg9
I00
sg10
F0.6278746080900803
sg11
F58.0
sg12
F386335.0
ssI4
(dp16
g2
F243293.0
sg3
F288682.0
sg4
F1500000.0
sg5
F0.65625
sg6
F0.03062200956937799
sg7
F34039.0
sg8
F11350.0
sg9
I01
sg10
F0.8665224027607292
sg11
F1035.0
sg12
F853064.0
ssI5
(dp17
g2
F267093.0
sg3
F628522.0
sg4
F325000.0
sg5
F0.0
sg6
F0.0
sg7
F35018.0
sg8
F1411.0
sg9
I00
sg10
F0.0
sg11
F0.0
sg12
F208510.0
ssI6
(dp18
g2
F0.0
sg3
F1848227.0
sg4
F0.0
sg5
F0.0
sg6
F0.0
sg7
F0.0
sg8
F0.0
sg9
I00
sg10
F0.5162704668925684
sg11
F22.0
sg12
F462384.0
ssI7
(dp19
g2
F370448.0
sg3
F4099771.0
sg4
F2600000.0
sg5
F0.5416666666666666
sg6
F0.024628450106157114
sg7
F137108.0
sg8
F297353.0
sg9
I00
sg10
F0.6639508556067727
sg11
F2228.0
sg12
F558801.0
ssI8
(dp20
g2
F0.0
sg3
F3131860.0
sg4
F0.0
sg5
F0.013979496738117428
sg6
F0.01872340425531915
sg7
F0.0
sg8
F0.0
sg9
I00
sg10
F0.7180407538025821
sg11
F1074.0
sg12
F2046079.0
ssI9
(dp21
g2
F197091.0
sg3
F1737629.0
sg4
F400000.0
sg5
F0.21621621621621623
sg6
F0.049273021001615507
sg7
F43057.0
sg8
F778.0
sg9
I00
sg10
F1.0
sg11
F742.0
sg12
F409554.0
ssI10
(dp22
g2
F130724.0
sg3
F3100224.0
sg4
F0.0
sg5
F1.0
sg6
F0.078125
sg7
F4994.0
sg8
F0.0
sg9
I00
sg10
F1.0
sg11
F119.0
sg12
F0.0
ssI11
(dp23
g2
F288589.0
sg3
F1130461.0
sg4
F788750.0
sg5
F0.0
sg6
F0.10810810810810811
sg7
F53122.0
sg8
F0.0
sg9
I00
sg10
F0.0
sg11
F41.0
sg12
F0.0
ssI12
(dp24
g2
F248546.0
sg3
F2014835.0
sg4
F850000.0
sg5
F0.14285714285714285
sg6
F0.010101010101010102
sg7
F84208.0
sg8
F272.0
sg9
I00
sg10
F0.8019173178925221
sg11
F2326.0
sg12
F189041.0
ssI13
(dp25
g2
F257486.0
sg3
F1545059.0
sg4
F700000.0
sg5
F0.34210526315789475
sg6
F0.013978088401964487
sg7
F0.0
sg8
F111122.0
sg9
I00
sg10
F0.0
sg11
F2565.0
sg12
F698920.0
ssI14
(dp26
g2
F0.0
sg3
F966522.0
sg4
F0.0
sg5
F0.0
sg6
F0.0
sg7
F0.0
sg8
F0.0
sg9
I00
sg10
F1.0
sg11
F23.0
sg12
F0.0
ssI15
(dp27
g2
F0.0
sg3
F0.0
sg4
F0.0
sg5
F0.0
sg6
F0.0
sg7
F0.0
sg8
F0.0
sg9
I00
sg10
F1.0
sg11
F0.0
sg12
F153686.0
ssI16
(dp28
g2
F288542.0
sg3
F1490344.0
sg4
F1200000.0
sg5
F0.275
sg6
F0.13651877133105803
sg7
F16514.0
sg8
F101740.0
sg9
I01
sg10
F0.0
sg11
F1132.0
sg12
F698242.0
ssI17
(dp29
g2
F251654.0
sg3
F3202070.0
sg4
F1100000.0
sg5
F0.0
sg6
F0.08823529411764706
sg7
F0.0
sg8
F947.0
sg9
I00
sg10
F0.7455422176549636
sg11
F114.0
sg12
F360528.0
ssI18
(dp30
g2
F288558.0
sg3
F551174.0
sg4
F250000.0
sg5
F0.3392857142857143
sg6
F0.09689922480620156
sg7
F10181.0
sg8
F2435.0
sg9
I00
sg10
F0.25500079230021977
sg11
F117.0
sg12
F540672.0
ssI19
(dp31
g2
F63744.0
sg3
F762135.0
sg4
F0.0
sg5
F0.0
sg6
F0.0
sg7
F51870.0
sg8
F401130.0
sg9
I00
sg10
F0.0
sg11
F0.0
sg12
F384930.0
ssI20
(dp32
g2
F0.0
sg3
F87410.0
sg4
F0.0
sg5
F0.0
sg6
F0.0
sg7
F33785.0
sg8
F0.0
sg9
I00
sg10
F1.0
sg11
F0.0
sg12
F0.0
ssI21
(dp33
g2
F357091.0
sg3
F1798780.0
sg4
F850000.0
sg5
F0.0
sg6
F0.02533532041728763
sg7
F50936.0
sg8
F2.0
sg9
I00
sg10
F0.7368276335790643
sg11
F215.0
sg12
F1552453.0
ssI22
(dp34
g2
F271442.0
sg3
F3471141.0
sg4
F3100000.0
sg5
F0.11226851851851852
sg6
F0.030222757375075255
sg7
F5774.0
sg8
F93925.0
sg9
I00
sg10
F0.14811849918577044
sg11
F3669.0
sg12
F466101.0
ssI23
(dp35
g2
F0.0
sg3
F0.0
sg4
F0.0
sg5
F0.0
sg6
F0.0
sg7
F0.0
sg8
F0.0
sg9
I00
sg10
F0.0
sg11
F0.0
sg12
F32460.0
ssI24
(dp36
g2
F0.0
sg3
F102500.0
sg4
F0.0
sg5
F0.0
sg6
F0.0
sg7
F0.0
sg8
F0.0
sg9
I00
sg10
F-0.07450162157258522
sg11
F0.0
sg12
F0.0
ssI25
(dp37
g2
F304110.0
sg3
F3038702.0
sg4
F2000000.0
sg5
F0.030958597538232
sg6
F0.029183483390251473
sg7
F178979.0
sg8
F1191.0
sg9
I00
sg10
F0.6958849633331483
sg11
F1730.0
sg12
F630137.0
ssI26
(dp38
g2
F0.0
sg3
F189583.0
sg4
F0.0
sg5
F0.0
sg6
F0.0
sg7
F0.0
sg8
F189583.0
sg9
I00
sg10
F0.0
sg11
F0.0
sg12
F0.0
ssI27
(dp39
g2
F187922.0
sg3
F618850.0
sg4
F250000.0
sg5
F0.0
sg6
F0.010443864229765013
sg7
F59175.0
sg8
F427316.0
sg9
I00
sg10
F0.0
sg11
F233.0
sg12
F659249.0
ssI28
(dp40
g2
F0.0
sg3
F228656.0
sg4
F0.0
sg5
F0.0
sg6
F0.0
sg7
F228656.0
sg8
F0.0
sg9
I00
sg10
F0.0
sg11
F0.0
sg12
F0.0
ssI29
(dp41
g2
F213625.0
sg3
F2047593.0
sg4
F1000000.0
sg5
F0.2
sg6
F0.01431238332296204
sg7
F38559.0
sg8
F425688.0
sg9
I00
sg10
F0.7949459165122768
sg11
F1336.0
sg12
F378082.0
ssI30
(dp42
g2
F249201.0
sg3
F1099100.0
sg4
F700000.0
sg5
F0.5853658536585366
sg6
F0.02635542168674699
sg7
F33271.0
sg8
F1950.0
sg9
I01
sg10
F0.8521804566918219
sg11
F1258.0
sg12
F283649.0
ssI31
(dp43
g2
F0.0
sg3
F0.0
sg4
F0.0
sg5
F0.0
sg6
F0.0
sg7
F0.0
sg8
F0.0
sg9
I00
sg10
F1.0
sg11
F0.0
sg12
F0.0
ssI32
(dp44
g2
F231330.0
sg3
F969068.0
sg4
F700000.0
sg5
F0.08887865530739121
sg6
F0.01968557758031442
sg7
F37172.0
sg8
F566.0
sg9
I00
sg10
F0.0
sg11
F2639.0
sg12
F126027.0
ssI33
(dp45
g2
F0.0
sg3
F475.0
sg4
F0.0
sg5
F0.3684210526315789
sg6
F0.006980802792321117
sg7
F475.0
sg8
F0.0
sg9
I00
sg10
F0.0
sg11
F471.0
sg12
F2217299.0
ssI34
(dp46
g2
F182245.0
sg3
F2692324.0
sg4
F200000.0
sg5
F0.0
sg6
F0.0
sg7
F21530.0
sg8
F53775.0
sg9
I00
sg10
F0.5961081966140735
sg11
F0.0
sg12
F407503.0
ssI35
(dp47
g2
F0.0
sg3
F148.0
sg4
F0.0
sg5
F0.0
sg6
F0.0
sg7
F148.0
sg8
F0.0
sg9
I00
sg10
F0.0
sg11
F0.0
sg12
F0.0
ssI36
(dp48
g2
F211788.0
sg3
F2081796.0
sg4
F1700000.0
sg5
F0.037037037037037035
sg6
F0.030303030303030304
sg7
F98849.0
sg8
F1936.0
sg9
I00
sg10
F0.0
sg11
F900.0
sg12
F441096.0
ssI37
(dp49
g2
F0.0
sg3
F0.0
sg4
F0.0
sg5
F0.0
sg6
F0.0
sg7
F0.0
sg8
F0.0
sg9
I00
sg10
F0.0
sg11
F0.0
sg12
F662086.0
ssI38
(dp50
g2
F0.0
sg3
F0.0
sg4
F0.0
sg5
F0.0
sg6
F0.01050420168067227
sg7
F0.0
sg8
F0.0
sg9
I00
sg10
F1.0
sg11
F739.0
sg12
F0.0
ssI39
(dp51
g2
F0.0
sg3
F7961.0
sg4
F0.0
sg5
F0.0
sg6
F0.031746031746031744
sg7
F0.0
sg8
F0.0
sg9
I00
sg10
F0.0
sg11
F50.0
sg12
F151418.0
ssI40
(dp52
g2
F0.0
sg3
F0.0
sg4
F0.0
sg5
F0.009302325581395349
sg6
F0.017445917655268667
sg7
F0.0
sg8
F0.0
sg9
I00
sg10
F0.8754089633971995
sg11
F508.0
sg12
F94556.0
ssI41
(dp53
g2
F224305.0
sg3
F2652612.0
sg4
F800000.0
sg5
F0.0
sg6
F0.0
sg7
F118134.0
sg8
F907502.0
sg9
I01
sg10
F0.0
sg11
F0.0
sg12
F985032.0
ssI42
(dp54
g2
F273746.0
sg3
F2664228.0
sg4
F1000000.0
sg5
F0.2222222222222222
sg6
F0.02374202693125443
sg7
F0.0
sg8
F3083.0
sg9
I00
sg10
F0.0
sg11
F2672.0
sg12
F360528.0
ssI43
(dp55
g2
F339288.0
sg3
F10425757.0
sg4
F8000000.0
sg5
F0.15899419729206962
sg6
F0.07273729163796666
sg7
F49537.0
sg8
F1552.0
sg9
I00
sg10
F0.80489241252034
sg11
F3962.0
sg12
F1008149.0
ssI44
(dp56
g2
F216582.0
sg3
F228474.0
sg4
F0.0
sg5
F0.0
sg6
F0.0
sg7
F11892.0
sg8
F0.0
sg9
I00
sg10
F0.6514218708895034
sg11
F0.0
sg12
F869220.0
ssI45
(dp57
g2
F210500.0
sg3
F1204583.0
sg4
F425000.0
sg5
F0.0
sg6
F0.0
sg7
F52255.0
sg8
F1105.0
sg9
I00
sg10
F1.0
sg11
F0.0
sg12
F315068.0
ssI46
(dp58
g2
F0.0
sg3
F213071.0
sg4
F0.0
sg5
F0.0
sg6
F0.0
sg7
F103773.0
sg8
F0.0
sg9
I00
sg10
F0.0
sg11
F0.0
sg12
F0.0
ssI47
(dp59
g2
F0.0
sg3
F0.0
sg4
F0.0
sg5
F0.0
sg6
F0.0
sg7
F0.0
sg8
F0.0
sg9
I00
sg10
F0.0
sg11
F12.0
sg12
F0.0
ssI48
(dp60
g2
F272880.0
sg3
F2146973.0
sg4
F750000.0
sg5
F0.0
sg6
F0.0
sg7
F0.0
sg8
F819288.0
sg9
I00
sg10
F0.4973900737342627
sg11
F0.0
sg12
F441096.0
ssI49
(dp61
g2
F477.0
sg3
F916197.0
sg4
F0.0
sg5
F0.0
sg6
F0.06890459363957598
sg7
F56301.0
sg8
F864523.0
sg9
I00
sg10
F0.7716538631639595
sg11
F465.0
sg12
F1757552.0
ssI50
(dp62
g2
F0.0
sg3
F77492.0
sg4
F0.0
sg5
F0.0
sg6
F0.0
sg7
F0.0
sg8
F0.0
sg9
I00
sg10
F1.0
sg11
F0.0
sg12
F0.0
ssI51
(dp63
g2
F269076.0
sg3
F1057548.0
sg4
F650000.0
sg5
F0.053497942386831275
sg6
F0.0048848108786058485
sg7
F137767.0
sg8
F705.0
sg9
I00
sg10
F0.6158423345062467
sg11
F4527.0
sg12
F379164.0
ssI52
(dp64
g2
F428780.0
sg3
F4335388.0
sg4
F1500000.0
sg5
F0.25
sg6
F0.008785691873235017
sg7
F0.0
sg8
F1852186.0
sg9
I00
sg10
F0.5866310512492562
sg11
F2103.0
sg12
F1293424.0
ssI53
(dp65
g2
F211844.0
sg3
F2003885.0
sg4
F200000.0
sg5
F0.358974358974359
sg6
F0.057777777777777775
sg7
F22884.0
sg8
F1573324.0
sg9
I01
sg10
F0.6514218708895034
sg11
F91.0
sg12
F869220.0
ssI54
(dp66
g2
F0.0
sg3
F87492.0
sg4
F0.0
sg5
F0.0
sg6
F0.0
sg7
F0.0
sg8
F0.0
sg9
I00
sg10
F1.0
sg11
F0.0
sg12
F0.0
ssI55
(dp67
g2
F206121.0
sg3
F1208649.0
sg4
F600000.0
sg5
F0.05405405405405406
sg6
F0.16106442577030813
sg7
F41626.0
sg8
F25553.0
sg9
I00
sg10
F0.10915074963413332
sg11
F552.0
sg12
F141833.0
ssI56
(dp68
g2
F174246.0
sg3
F704896.0
sg4
F0.0
sg5
F0.0
sg6
F0.0
sg7
F116335.0
sg8
F465357.0
sg9
I00
sg10
F0.0
sg11
F0.0
sg12
F1034346.0
ssI57
(dp69
g2
F510364.0
sg3
F4677574.0
sg4
F3000000.0
sg5
F0.04316546762589928
sg6
F0.03090214321315833
sg7
F57838.0
sg8
F301026.0
sg9
I00
sg10
F0.5400371796194098
sg11
F3920.0
sg12
F2796177.0
ssI58
(dp70
g2
F365038.0
sg3
F2101364.0
sg4
F1100000.0
sg5
F0.07075127644055434
sg6
F0.02763592670471613
sg7
F81364.0
sg8
F540.0
sg9
I00
sg10
F0.5233356947246603
sg11
F2189.0
sg12
F1478269.0
ssI59
(dp71
g2
F0.0
sg3
F0.0
sg4
F0.0
sg5
F0.0625
sg6
F0.0
sg7
F0.0
sg8
F0.0
sg9
I00
sg10
F0.0
sg11
F3.0
sg12
F47304.0
ssI60
(dp72
g2
F365163.0
sg3
F4747979.0
sg4
F3000000.0
sg5
F0.198435972629521
sg6
F0.02133850630455868
sg7
F86174.0
sg8
F1661.0
sg9
I01
sg10
F0.6339091172441614
sg11
F2097.0
sg12
F1323148.0
ssI61
(dp73
g2
F162779.0
sg3
F999356.0
sg4
F100000.0
sg5
F0.0
sg6
F0.0
sg7
F0.0
sg8
F162.0
sg9
I00
sg10
F1.0
sg11
F0.0
sg12
F0.0
ssI62
(dp74
g2
F0.0
sg3
F0.0
sg4
F0.0
sg5
F0.0
sg6
F0.0
sg7
F0.0
sg8
F0.0
sg9
I00
sg10
F1.0
sg11
F0.0
sg12
F0.0
ssI63
(dp75
g2
F236457.0
sg3
F875889.0
sg4
F200000.0
sg5
F0.0
sg6
F0.0
sg7
F57727.0
sg8
F2630.0
sg9
I00
sg10
F0.8319804008083003
sg11
F0.0
sg12
F514847.0
ssI64
(dp76
g2
F0.0
sg3
F2151.0
sg4
F0.0
sg5
F0.0
sg6
F0.0
sg7
F2151.0
sg8
F0.0
sg9
I00
sg10
F0.0
sg11
F0.0
sg12
F0.0
ssI65
(dp77
g2
F1072321.0
sg3
F103559793.0
sg4
F7000000.0
sg5
F0.4444444444444444
sg6
F0.028785396676807865
sg7
F99832.0
sg8
F10359729.0
sg9
I01
sg10
F0.6994161972212709
sg11
F2411.0
sg12
F14761694.0
ssI66
(dp78
g2
F261516.0
sg3
F1271582.0
sg4
F750000.0
sg5
F0.0
sg6
F0.0
sg7
F9410.0
sg8
F150656.0
sg9
I00
sg10
F0.0
sg11
F0.0
sg12
F417619.0
ssI67
(dp79
g2
F329078.0
sg3
F1321557.0
sg4
F750000.0
sg5
F0.28846153846153844
sg6
F0.016891891891891893
sg7
F63791.0
sg8
F972.0
sg9
I00
sg10
F0.6279949500587511
sg11
F856.0
sg12
F969729.0
ssI68
(dp80
g2
F0.0
sg3
F0.0
sg4
F0.0
sg5
F0.07692307692307693
sg6
F0.06040268456375839
sg7
F0.0
sg8
F0.0
sg9
I00
sg10
F0.4477451953036776
sg11
F720.0
sg12
F934065.0
ssI69
(dp81
g2
F184899.0
sg3
F807956.0
sg4
F325000.0
sg5
F0.0
sg6
F0.0
sg7
F22344.0
sg8
F713.0
sg9
I00
sg10
F0.0
sg11
F0.0
sg12
F207940.0
ssI70
(dp82
g2
F192008.0
sg3
F900585.0
sg4
F509870.0
sg5
F0.0
sg6
F0.0
sg7
F50080.0
sg8
F76547.0
sg9
I00
sg10
F0.2612528914932817
sg11
F0.0
sg12
F235370.0
ssI71
(dp83
g2
F263413.0
sg3
F1318763.0
sg4
F900000.0
sg5
F0.0
sg6
F0.02981651376146789
sg7
F228763.0
sg8
F51587.0
sg9
I00
sg10
F0.534640627686971
sg11
F1469.0
sg12
F441096.0
ssI72
(dp84
g2
F262663.0
sg3
F1297461.0
sg4
F700000.0
sg5
F0.0
sg6
F0.0
sg7
F48357.0
sg8
F416441.0
sg9
I00
sg10
F0.2806331682960852
sg11
F0.0
sg12
F480632.0
ssI73
(dp85
g2
F0.0
sg3
F0.0
sg4
F0.0
sg5
F0.0
sg6
F0.0
sg7
F0.0
sg8
F0.0
sg9
I00
sg10
F1.0
sg11
F0.0
sg12
F0.0
ssI74
(dp86
g2
F0.0
sg3
F0.0
sg4
F0.0
sg5
F0.0
sg6
F0.0
sg7
F0.0
sg8
F0.0
sg9
I00
sg10
F0.9015123164864087
sg11
F0.0
sg12
F264013.0
ssI75
(dp87
g2
F374125.0
sg3
F3859065.0
sg4
F1150000.0
sg5
F0.03142709943328181
sg6
F0.04489897730107259
sg7
F76169.0
sg8
F52382.0
sg9
I00
sg10
F0.7580059121348186
sg11
F1847.0
sg12
F524169.0
ssI76
(dp88
g2
F278601.0
sg3
F2669589.0
sg4
F1350000.0
sg5
F0.5555555555555556
sg6
F0.07534983853606028
sg7
F65907.0
sg8
F1621.0
sg9
I01
sg10
F0.0
sg11
F1593.0
sg12
F252055.0
ssI77
(dp89
g2
F0.0
sg3
F0.0
sg4
F0.0
sg5
F0.0
sg6
F0.0
sg7
F0.0
sg8
F0.0
sg9
I00
sg10
F0.11446620193598861
sg11
F0.0
sg12
F75838.0
ssI78
(dp90
g2
F199157.0
sg3
F1414857.0
sg4
F350000.0
sg5
F0.5
sg6
F0.0010683760683760685
sg7
F23870.0
sg8
F285414.0
sg9
I00
sg10
F0.40984841195236227
sg11
F723.0
sg12
F956775.0
ssI79
(dp91
g2
F0.0
sg3
F0.0
sg4
F0.0
sg5
F0.0
sg6
F0.0
sg7
F0.0
sg8
F0.0
sg9
I00
sg10
F0.2692354651557151
sg11
F127.0
sg12
F161602.0
ssI80
(dp92
g2
F96840.0
sg3
F111529.0
sg4
F0.0
sg5
F0.22171945701357465
sg6
F0.12208258527827648
sg7
F14689.0
sg8
F0.0
sg9
I00
sg10
F0.951676889314051
sg11
F1063.0
sg12
F381285.0
ssI81
(dp93
g2
F80818.0
sg3
F860136.0
sg4
F0.0
sg5
F0.0
sg6
F0.0
sg7
F0.0
sg8
F874.0
sg9
I00
sg10
F1.0
sg11
F0.0
sg12
F0.0
ssI82
(dp94
g2
F213999.0
sg3
F5501630.0
sg4
F5249999.0
sg5
F0.2231404958677686
sg6
F0.028532098610937303
sg7
F17355.0
sg8
F210698.0
sg9
I01
sg10
F0.8581360487258093
sg11
F5521.0
sg12
F157569.0
ssI83
(dp95
g2
F210692.0
sg3
F2093263.0
sg4
F750000.0
sg5
F0.25
sg6
F0.1172566371681416
sg7
F25785.0
sg8
F1568.0
sg9
I00
sg10
F0.8847950222742259
sg11
F599.0
sg12
F189041.0
ssI84
(dp96
g2
F222093.0
sg3
F911453.0
sg4
F0.0
sg5
F0.0
sg6
F0.0
sg7
F46145.0
sg8
F426629.0
sg9
I00
sg10
F0.9241727960254025
sg11
F73.0
sg12
F365320.0
ssI85
(dp97
g2
F440698.0
sg3
F2424083.0
sg4
F1300000.0
sg5
F0.0
sg6
F0.0
sg7
F55921.0
sg8
F277464.0
sg9
I01
sg10
F0.0
sg11
F0.0
sg12
F1794412.0
ssI86
(dp98
g2
F0.0
sg3
F181755.0
sg4
F0.0
sg5
F0.0
sg6
F0.0
sg7
F0.0
sg8
F0.0
sg9
I00
sg10
F1.0
sg11
F2.0
sg12
F0.0
ssI87
(dp99
g2
F240189.0
sg3
F1639297.0
sg4
F1250000.0
sg5
F0.1736111111111111
sg6
F0.07659738260200154
sg7
F35818.0
sg8
F486.0
sg9
I01
sg10
F0.0
sg11
F2188.0
sg12
F126027.0
ssI88
(dp100
g2
F420636.0
sg3
F505050.0
sg4
F1750000.0
sg5
F0.2222222222222222
sg6
F0.04640883977900553
sg7
F46950.0
sg8
F174839.0
sg9
I01
sg10
F0.8780809916753388
sg11
F864.0
sg12
F2748364.0
ssI89
(dp101
g2
F275101.0
sg3
F1086821.0
sg4
F400000.0
sg5
F0.011901447661469933
sg6
F0.008899500759713479
sg7
F83585.0
sg8
F4669.0
sg9
I00
sg10
F0.8708788703706929
sg11
F583.0
sg12
F126027.0
ssI90
(dp102
g2
F314288.0
sg3
F1101393.0
sg4
F800000.0
sg5
F0.12121212121212122
sg6
F0.0
sg7
F27861.0
sg8
F494.0
sg9
I00
sg10
F0.23717347311417925
sg11
F71.0
sg12
F378082.0
ssI91
(dp103
g2
F94941.0
sg3
F249787.0
sg4
F0.0
sg5
F0.0
sg6
F0.0
sg7
F18834.0
sg8
F176.0
sg9
I00
sg10
F0.7206993163550137
sg11
F0.0
sg12
F2041016.0
ssI92
(dp104
g2
F0.0
sg3
F27942.0
sg4
F0.0
sg5
F0.0
sg6
F0.0
sg7
F27942.0
sg8
F0.0
sg9
I00
sg10
F0.0
sg11
F0.0
sg12
F0.0
ssI93
(dp105
g2
F239502.0
sg3
F1112087.0
sg4
F500000.0
sg5
F0.0
sg6
F0.0
sg7
F16514.0
sg8
F356071.0
sg9
I00
sg10
F0.0
sg11
F0.0
sg12
F511734.0
ssI94
(dp106
g2
F1111258.0
sg3
F8682716.0
sg4
F5600000.0
sg5
F0.2777777777777778
sg6
F0.0242624758753791
sg7
F29336.0
sg8
F22122.0
sg9
I01
sg10
F0.7377267561269261
sg11
F2042.0
sg12
F6843672.0
ssI95
(dp107
g2
F0.0
sg3
F1279.0
sg4
F0.0
sg5
F0.0
sg6
F0.0
sg7
F1279.0
sg8
F0.0
sg9
I00
sg10
F0.0
sg11
F0.0
sg12
F0.0
ssI96
(dp108
g2
F0.0
sg3
F0.0
sg4
F0.0
sg5
F0.72
sg6
F0.0636215334420881
sg7
F0.0
sg8
F0.0
sg9
I00
sg10
F0.7784414243522942
sg11
F583.0
sg12
F405999.0
ssI97
(dp109
g2
F0.0
sg3
F564348.0
sg4
F0.0
sg5
F0.0
sg6
F0.0
sg7
F0.0
sg8
F0.0
sg9
I00
sg10
F0.8093138150204559
sg11
F0.0
sg12
F208809.0
ssI98
(dp110
g2
F6615.0
sg3
F1146658.0
sg4
F0.0
sg5
F0.0
sg6
F0.0
sg7
F0.0
sg8
F680833.0
sg9
I00
sg10
F0.0
sg11
F0.0
sg12
F0.0
ssI99
(dp111
g2
F655037.0
sg3
F1386690.0
sg4
F300000.0
sg5
F0.0
sg6
F0.0077951002227171495
sg7
F31653.0
sg8
F0.0
sg9
I00
sg10
F1.0
sg11
F728.0
sg12
F0.0
ssI100
(dp112
g2
F0.0
sg3
F774401.0
sg4
F0.0
sg5
F0.0
sg6
F0.0
sg7
F0.0
sg8
F0.0
sg9
I00
sg10
F0.0
sg11
F0.0
sg12
F463261.0
ssI101
(dp113
g2
F404338.0
sg3
F1747522.0
sg4
F1000000.0
sg5
F0.05725699067909454
sg6
F0.010976948408342482
sg7
F41953.0
sg8
F1231.0
sg9
I00
sg10
F0.32859370109603386
sg11
F3639.0
sg12
F4131594.0
ssI102
(dp114
g2
F0.0
sg3
F0.0
sg4
F0.0
sg5
F0.0
sg6
F0.0
sg7
F0.0
sg8
F0.0
sg9
I00
sg10
F0.7027878528057863
sg11
F10.0
sg12
F560170.0
ssI103
(dp115
g2
F259996.0
sg3
F1034395.0
sg4
F325000.0
sg5
F0.23333333333333334
sg6
F0.055
sg7
F0.0
sg8
F1425.0
sg9
I00
sg10
F0.8112420231790382
sg11
F337.0
sg12
F388167.0
ssI104
(dp116
g2
F317543.0
sg3
F1934359.0
sg4
F450000.0
sg5
F0.0
sg6
F0.0
sg7
F81353.0
sg8
F1085463.0
sg9
I00
sg10
F0.08564701963923563
sg11
F0.0
sg12
F13847074.0
ssI105
(dp117
g2
F0.0
sg3
F0.0
sg4
F0.0
sg5
F0.0
sg6
F0.0
sg7
F0.0
sg8
F0.0
sg9
I00
sg10
F0.8435755201027989
sg11
F0.0
sg12
F950730.0
ssI106
(dp118
g2
F201955.0
sg3
F4484442.0
sg4
F4175000.0
sg5
F0.029612756264236904
sg6
F0.016195727084769126
sg7
F13868.0
sg8
F152.0
sg9
I00
sg10
F1.0
sg11
F1407.0
sg12
F126027.0
ssI107
(dp119
g2
F248146.0
sg3
F1576511.0
sg4
F600000.0
sg5
F0.04411764705882353
sg6
F0.007653061224489796
sg7
F116337.0
sg8
F2401.0
sg9
I00
sg10
F0.5688170867939191
sg11
F2477.0
sg12
F213063.0
ssI108
(dp120
g2
F0.0
sg3
F83750.0
sg4
F0.0
sg5
F0.0
sg6
F0.0
sg7
F0.0
sg8
F0.0
sg9
I00
sg10
F1.0
sg11
F0.0
sg12
F44093.0
ssI109
(dp121
g2
F0.0
sg3
F84992.0
sg4
F0.0
sg5
F0.0
sg6
F0.0
sg7
F1413.0
sg8
F0.0
sg9
I00
sg10
F0.0
sg11
F0.0
sg12
F0.0
ssI110
(dp122
g2
F0.0
sg3
F49288.0
sg4
F0.0
sg5
F0.024390243902439025
sg6
F0.008748317631224764
sg7
F49288.0
sg8
F0.0
sg9
I00
sg10
F0.0
sg11
F761.0
sg12
F0.0
ssI111
(dp123
g2
F0.0
sg3
F182466.0
sg4
F0.0
sg5
F0.0
sg6
F0.0
sg7
F3486.0
sg8
F0.0
sg9
I00
sg10
F1.0
sg11
F0.0
sg12
F0.0
ssI112
(dp124
g2
F0.0
sg3
F0.0
sg4
F0.0
sg5
F0.14705882352941177
sg6
F0.048678720445062586
sg7
F0.0
sg8
F0.0
sg9
I00
sg10
F0.6750447516706992
sg11
F589.0
sg12
F363428.0
ssI113
(dp125
g2
F76399.0
sg3
F394475.0
sg4
F100000.0
sg5
F0.0
sg6
F0.0
sg7
F8409.0
sg8
F202052.0
sg9
I00
sg10
F0.9854996256416853
sg11
F0.0
sg12
F201483.0
ssI114
(dp126
g2
F262788.0
sg3
F2368151.0
sg4
F1000000.0
sg5
F0.0
sg6
F0.0
sg7
F35812.0
sg8
F374689.0
sg9
I00
sg10
F0.9848484848484849
sg11
F0.0
sg12
F126027.0
ssI115
(dp127
g2
F0.0
sg3
F15456290.0
sg4
F0.0
sg5
F0.034482758620689655
sg6
F0.0
sg7
F0.0
sg8
F137864.0
sg9
I00
sg10
F0.0
sg11
F463.0
sg12
F-2604490.0
ssI116
(dp128
g2
F261809.0
sg3
F477557.0
sg4
F300000.0
sg5
F0.4666666666666667
sg6
F0.09294871794871795
sg7
F0.0
sg8
F540.0
sg9
I00
sg10
F0.0
sg11
F196.0
sg12
F307301.0
ssI117
(dp129
g2
F248017.0
sg3
F1054637.0
sg4
F500000.0
sg5
F0.0
sg6
F0.0
sg7
F600.0
sg8
F1215.0
sg9
I00
sg10
F0.8136618350821336
sg11
F23.0
sg12
F189041.0
ssI118
(dp130
g2
F0.0
sg3
F55097.0
sg4
F0.0
sg5
F0.0
sg6
F0.0
sg7
F55097.0
sg8
F0.0
sg9
I00
sg10
F1.0
sg11
F0.0
sg12
F0.0
ssI119
(dp131
g2
F229284.0
sg3
F812194.0
sg4
F400000.0
sg5
F0.044444444444444446
sg6
F0.005018248175182482
sg7
F57580.0
sg8
F330.0
sg9
I00
sg10
F0.6702998187329382
sg11
F395.0
sg12
F196983.0
ssI120
(dp132
g2
F231946.0
sg3
F1566469.0
sg4
F850000.0
sg5
F0.6136363636363636
sg6
F0.04784688995215311
sg7
F48405.0
sg8
F60814.0
sg9
I00
sg10
F0.7099747476156415
sg11
F178.0
sg12
F259907.0
ssI121
(dp133
g2
F221003.0
sg3
F319941.0
sg4
F70000.0
sg5
F0.21428571428571427
sg6
F0.056818181818181816
sg7
F28164.0
sg8
F774.0
sg9
I00
sg10
F0.0
sg11
F114.0
sg12
F0.0
ssI122
(dp134
g2
F158403.0
sg3
F360300.0
sg4
F0.0
sg5
F0.0
sg6
F0.0
sg7
F53947.0
sg8
F147950.0
sg9
I01
sg10
F0.6990930736662875
sg11
F0.0
sg12
F3576206.0
ssI123
(dp135
g2
F0.0
sg3
F91093.0
sg4
F0.0
sg5
F0.0
sg6
F0.0
sg7
F77978.0
sg8
F2856.0
sg9
I01
sg10
F1.0
sg11
F0.0
sg12
F0.0
ssI124
(dp136
g2
F250100.0
sg3
F1410464.0
sg4
F600000.0
sg5
F0.2222222222222222
sg6
F0.11858475894245724
sg7
F3475.0
sg8
F473.0
sg9
I00
sg10
F0.8310706149364614
sg11
F1902.0
sg12
F315068.0
ssI125
(dp137
g2
F492375.0
sg3
F550981.0
sg4
F800000.0
sg5
F0.022002200220022004
sg6
F0.029344337459880788
sg7
F51124.0
sg8
F7482.0
sg9
I00
sg10
F1.0
sg11
F1401.0
sg12
F1787380.0
ssI126
(dp138
g2
F1060932.0
sg3
F17252530.0
sg4
F2000000.0
sg5
F0.2857142857142857
sg6
F0.07389312977099237
sg7
F86987.0
sg8
F7427621.0
sg9
I00
sg10
F0.713540281428528
sg11
F2979.0
sg12
F4188667.0
ssI127
(dp139
g2
F261879.0
sg3
F3123383.0
sg4
F1000000.0
sg5
F0.0
sg6
F0.0
sg7
F32047.0
sg8
F1829457.0
sg9
I00
sg10
F0.6450672665508715
sg11
F0.0
sg12
F8453763.0
ssI128
(dp140
g2
F239671.0
sg3
F827696.0
sg4
F400000.0
sg5
F0.0
sg6
F0.0
sg7
F129142.0
sg8
F69.0
sg9
I00
sg10
F0.0
sg11
F0.0
sg12
F145796.0
ssI129
(dp141
g2
F0.0
sg3
F0.0
sg4
F0.0
sg5
F0.03581526861451461
sg6
F0.01321253303133258
sg7
F0.0
sg8
F0.0
sg9
I00
sg10
F0.0
sg11
F571.0
sg12
F346663.0
ssI130
(dp142
g2
F0.0
sg3
F50591.0
sg4
F0.0
sg5
F0.0
sg6
F0.0
sg7
F0.0
sg8
F0.0
sg9
I00
sg10
F1.0
sg11
F0.0
sg12
F0.0
ssI131
(dp143
g2
F304588.0
sg3
F3676340.0
sg4
F2500000.0
sg5
F0.49333333333333335
sg6
F0.023931623931623933
sg7
F95924.0
sg8
F401481.0
sg9
I00
sg10
F0.40312870996771993
sg11
F1604.0
sg12
F1392142.0
ssI132
(dp144
g2
F309946.0
sg3
F1587421.0
sg4
F700000.0
sg5
F0.2459016393442623
sg6
F0.02232518955349621
sg7
F127017.0
sg8
F150458.0
sg9
I01
sg10
F0.3498529990026327
sg11
F2271.0
sg12
F1248318.0
ssI133
(dp145
g2
F0.0
sg3
F3750.0
sg4
F0.0
sg5
F0.0
sg6
F0.0
sg7
F0.0
sg8
F0.0
sg9
I00
sg10
F0.0
sg11
F0.0
sg12
F0.0
ssI134
(dp146
g2
F85274.0
sg3
F1979596.0
sg4
F0.0
sg5
F0.2631578947368421
sg6
F0.056451612903225805
sg7
F28093.0
sg8
F1553729.0
sg9
I00
sg10
F0.3720239588452194
sg11
F437.0
sg12
F3654808.0
ssI135
(dp147
g2
F247338.0
sg3
F399393.0
sg4
F300000.0
sg5
F0.5789473684210527
sg6
F0.021739130434782608
sg7
F0.0
sg8
F152055.0
sg9
I00
sg10
F0.5061889897794771
sg11
F379.0
sg12
F576792.0
ssI136
(dp148
g2
F349487.0
sg3
F8407016.0
sg4
F0.0
sg5
F0.0
sg6
F0.005256241787122208
sg7
F8211.0
sg8
F2818454.0
sg9
I00
sg10
F1.0
sg11
F477.0
sg12
F0.0
ssI137
(dp149
g2
F330546.0
sg3
F2355702.0
sg4
F900000.0
sg5
F0.06742640075973409
sg6
F0.04428044280442804
sg7
F0.0
sg8
F400572.0
sg9
I00
sg10
F0.7382305550636237
sg11
F2333.0
sg12
F901657.0
ssI138
(dp150
g2
F0.0
sg3
F119292.0
sg4
F0.0
sg5
F0.0
sg6
F0.0
sg7
F0.0
sg8
F0.0
sg9
I00
sg10
F0.0
sg11
F0.0
sg12
F0.0
ssI139
(dp151
g2
F415189.0
sg3
F1868758.0
sg4
F1000000.0
sg5
F0.24489795918367346
sg6
F0.0306553911205074
sg7
F30674.0
sg8
F307895.0
sg9
I01
sg10
F0.0
sg11
F1585.0
sg12
F2502063.0
ssI140
(dp152
g2
F265214.0
sg3
F1092663.0
sg4
F600000.0
sg5
F0.0
sg6
F0.0
sg7
F0.0
sg8
F0.0
sg9
I00
sg10
F0.849455067064561
sg11
F300.0
sg12
F563798.0
ssI141
(dp153
g2
F278601.0
sg3
F875760.0
sg4
F800000.0
sg5
F0.5
sg6
F0.21734104046242775
sg7
F96268.0
sg8
F891.0
sg9
I00
sg10
F0.7085370050361336
sg11
F772.0
sg12
F315068.0
ssI142
(dp154
g2
F274975.0
sg3
F1272284.0
sg4
F600000.0
sg5
F0.375
sg6
F0.05956471935853379
sg7
F125978.0
sg8
F200308.0
sg9
I01
sg10
F0.49416219465516487
sg11
F874.0
sg12
F393818.0
ss.