(lp0
S'poi'
p1
aS'bonus'
p2
aS'expenses'
p3
aS'other'
p4
aS'restricted_stock'
p5
aS'salary'
p6
aS'shared_receipt_with_poi'
p7
aS'total_payments'
p8
aS'eso/tsv'
p9
aS'from_poi/to_msg'
p10
aS'to_poi/from_msg'
p11
a.